Certificate:
    Data:
        Version: 3 (0x2)
        Serial Number: 3050 (0xbea)
        Signature Algorithm: sha256WithRSAEncryption
        Issuer: C=US, ST=Washington, L=Seattle, O=getaCert - www.getacert.com
        Validity
            Not Before: May 11 03:33:28 2024 GMT
            Not After : Jul 10 03:33:28 2024 GMT
        Subject: C=MX, ST=CDMX, L=CDMX, O=ABC, OU=ABCD, CN=MIRIAM/emailAddress=miriam08.mr@gmail.com
        Subject Public Key Info:
            Public Key Algorithm: rsaEncryption
                RSA Public-Key: (2048 bit)
                Modulus:
                    00:cf:89:7e:44:0d:e0:e0:95:d5:72:74:dc:ec:cb:
                    11:95:85:4b:16:12:10:f6:86:df:45:53:6e:d3:0e:
                    0a:48:ef:b9:fb:83:1f:36:68:ec:b4:97:34:b5:ce:
                    03:9a:1c:b6:64:76:80:97:56:a0:4a:05:bf:62:30:
                    9e:69:dc:79:a6:82:db:ad:79:ce:42:df:50:ab:29:
                    24:0a:e4:46:47:d3:be:37:5c:05:d8:0e:7b:4d:84:
                    b5:57:a9:9f:58:e8:2f:ef:8d:78:62:12:42:1a:58:
                    2f:2e:b4:57:87:b7:92:2b:a4:7b:b9:c0:7c:43:35:
                    1f:90:4f:cd:90:d8:cc:48:18:0f:a0:e5:f7:d5:52:
                    24:fb:e7:5b:0e:a7:13:95:f0:f8:7a:8b:93:37:25:
                    c0:3b:a5:e9:a7:e4:a4:fa:f9:ab:1b:60:45:e7:f3:
                    47:ec:2c:35:d0:7c:8b:ab:81:89:8e:11:d7:9e:e4:
                    f8:59:b6:46:05:d3:2c:29:ed:3a:72:d7:0e:c9:0c:
                    88:b2:d1:5e:70:88:65:cc:6f:03:03:43:0e:bc:1b:
                    4a:83:26:05:be:fc:ae:21:04:66:91:47:53:bf:ee:
                    ca:00:dc:93:42:9b:99:62:7c:eb:10:d1:ce:74:9d:
                    88:d2:d6:46:04:89:10:b6:d7:2d:33:61:c8:96:ac:
                    a0:b5
                Exponent: 65537 (0x10001)
        X509v3 extensions:
            X509v3 Basic Constraints: 
                CA:FALSE
            Netscape Cert Type: 
                SSL Client, SSL Server, S/MIME, Object Signing
            X509v3 Key Usage: 
                Digital Signature, Key Encipherment
            X509v3 Extended Key Usage: 
                TLS Web Client Authentication, TLS Web Server Authentication
    Signature Algorithm: sha256WithRSAEncryption
         7b:67:d2:85:3d:b3:33:a6:1e:88:48:55:51:dc:e8:08:34:7b:
         2f:8b:40:78:e7:be:66:91:7e:bc:b7:e8:ab:1d:40:9a:9c:1c:
         7f:18:45:74:f0:da:8a:4b:19:a4:d4:52:25:70:a4:0d:e1:a3:
         5d:58:b4:76:81:4b:b1:4d:53:a2:93:08:5d:10:1f:bb:75:c9:
         93:03:a8:04:d2:a0:12:55:e9:08:18:d0:80:9c:3f:c7:1e:22:
         8e:e2:96:51:a8:91:4a:ee:e3:e5:70:80:e6:5c:95:89:f9:94:
         b1:e7:b4:08:22:68:c2:79:65:c9:d5:73:1f:d5:6c:81:02:35:
         0a:b6:aa:3e:f3:37:4b:65:97:95:9c:35:02:a2:c1:52:69:27:
         44:fc:b0:b5:ba:8e:19:12:62:80:2f:0f:07:cf:5f:bf:b5:f5:
         9a:0e:fe:95:8c:5e:51:b1:be:1d:48:2c:02:b3:32:9b:3d:de:
         b1:34:8f:f3:92:ba:26:d4:d7:3b:05:c8:98:b8:25:8a:10:b0:
         2b:75:6d:7a:2c:23:58:0b:e7:65:0d:70:eb:b2:15:95:7e:72:
         75:18:23:d7:85:6b:5e:0c:8b:d2:f3:95:39:f5:ef:9a:5d:88:
         fc:b3:6a:41:1c:cc:57:de:02:71:50:25:1f:22:a7:0d:d4:e2:
         00:fb:48:9e
-----BEGIN CERTIFICATE-----
MIIDoTCCAomgAwIBAgICC+owDQYJKoZIhvcNAQELBQAwWjELMAkGA1UEBhMCVVMx
EzARBgNVBAgTCldhc2hpbmd0b24xEDAOBgNVBAcTB1NlYXR0bGUxJDAiBgNVBAoT
G2dldGFDZXJ0IC0gd3d3LmdldGFjZXJ0LmNvbTAeFw0yNDA1MTEwMzMzMjhaFw0y
NDA3MTAwMzMzMjhaMH8xCzAJBgNVBAYTAk1YMQ0wCwYDVQQIDARDRE1YMQ0wCwYD
VQQHDARDRE1YMQwwCgYDVQQKDANBQkMxDTALBgNVBAsMBEFCQ0QxDzANBgNVBAMM
Bk1JUklBTTEkMCIGCSqGSIb3DQEJARYVbWlyaWFtMDgubXJAZ21haWwuY29tMIIB
IjANBgkqhkiG9w0BAQEFAAOCAQ8AMIIBCgKCAQEAz4l+RA3g4JXVcnTc7MsRlYVL
FhIQ9obfRVNu0w4KSO+5+4MfNmjstJc0tc4Dmhy2ZHaAl1agSgW/YjCeadx5poLb
rXnOQt9QqykkCuRGR9O+N1wF2A57TYS1V6mfWOgv7414YhJCGlgvLrRXh7eSK6R7
ucB8QzUfkE/NkNjMSBgPoOX31VIk++dbDqcTlfD4eouTNyXAO6Xpp+Sk+vmrG2BF
5/NH7Cw10HyLq4GJjhHXnuT4WbZGBdMsKe06ctcOyQyIstFecIhlzG8DA0MOvBtK
gyYFvvyuIQRmkUdTv+7KANyTQpuZYnzrENHOdJ2I0tZGBIkQttctM2HIlqygtQID
AQABo0wwSjAJBgNVHRMEAjAAMBEGCWCGSAGG+EIBAQQEAwIE8DALBgNVHQ8EBAMC
BaAwHQYDVR0lBBYwFAYIKwYBBQUHAwIGCCsGAQUFBwMBMA0GCSqGSIb3DQEBCwUA
A4IBAQB7Z9KFPbMzph6ISFVR3OgINHsvi0B4575mkX68t+irHUCanBx/GEV08NqK
Sxmk1FIlcKQN4aNdWLR2gUuxTVOikwhdEB+7dcmTA6gE0qASVekIGNCAnD/HHiKO
4pZRqJFK7uPlcIDmXJWJ+ZSx57QIImjCeWXJ1XMf1WyBAjUKtqo+8zdLZZeVnDUC
osFSaSdE/LC1uo4ZEmKALw8Hz1+/tfWaDv6VjF5Rsb4dSCwCszKbPd6xNI/zkrom
1Nc7BciYuCWKELArdW16LCNYC+dlDXDrshWVfnJ1GCPXhWteDIvS85U59e+aXYj8
s2pBHMxX3gJxUCUfIqcN1OIA+0ie
-----END CERTIFICATE-----
